; ModuleID = '22/1075.c'
source_filename = "22/1075.c"
target datalayout = "e-m:e-p270:32:32-p271:32:32-p272:64:64-i64:64-f80:128-n8:16:32:64-S128"
target triple = "x86_64-pc-linux-gnu"

@.str = private unnamed_addr constant [3 x i8] c"%d\00", align 1
@.str.1 = private unnamed_addr constant [3 x i8] c"No\00", align 1

; Function Attrs: noinline nounwind uwtable
define dso_local i32 @main() #0 {
  %1 = alloca i32, align 4
  %2 = alloca i32, align 4
  %3 = alloca i32, align 4
  %4 = alloca i32, align 4
  %5 = alloca i32, align 4
  %6 = alloca i8, align 1
  %7 = alloca [3000 x i32], align 16
  store i32 0, i32* %1, align 4
  store i32 0, i32* %2, align 4
  store i32 0, i32* %5, align 4
  br label %8

8:                                                ; preds = %21, %0
  %9 = load i32, i32* %2, align 4
  %10 = sext i32 %9 to i64
  %11 = getelementptr inbounds [3000 x i32], [3000 x i32]* %7, i64 0, i64 %10
  %12 = call i32 (i8*, ...) @__isoc99_scanf(i8* getelementptr inbounds ([3 x i8], [3 x i8]* @.str, i64 0, i64 0), i32* %11)
  %13 = icmp ne i32 %12, 0
  br i1 %13, label %14, label %24

14:                                               ; preds = %8
  %15 = call i32 @getchar()
  %16 = trunc i32 %15 to i8
  store i8 %16, i8* %6, align 1
  %17 = load i8, i8* %6, align 1
  %18 = sext i8 %17 to i32
  %19 = icmp eq i32 %18, 10
  br i1 %19, label %20, label %21

20:                                               ; preds = %14
  br label %24

21:                                               ; preds = %14
  %22 = load i32, i32* %2, align 4
  %23 = add nsw i32 %22, 1
  store i32 %23, i32* %2, align 4
  br label %8

24:                                               ; preds = %20, %8
  %25 = load i32, i32* %2, align 4
  %26 = icmp eq i32 %25, 0
  br i1 %26, label %27, label %29

27:                                               ; preds = %24
  %28 = call i32 (i8*, ...) @printf(i8* getelementptr inbounds ([3 x i8], [3 x i8]* @.str.1, i64 0, i64 0))
  br label %129

29:                                               ; preds = %24
  store i32 0, i32* %3, align 4
  br label %30

30:                                               ; preds = %75, %29
  %31 = load i32, i32* %3, align 4
  %32 = load i32, i32* %2, align 4
  %33 = icmp slt i32 %31, %32
  br i1 %33, label %34, label %78

34:                                               ; preds = %30
  store i32 0, i32* %5, align 4
  br label %35

35:                                               ; preds = %71, %34
  %36 = load i32, i32* %5, align 4
  %37 = load i32, i32* %2, align 4
  %38 = load i32, i32* %3, align 4
  %39 = sub nsw i32 %37, %38
  %40 = icmp slt i32 %36, %39
  br i1 %40, label %41, label %74

41:                                               ; preds = %35
  %42 = load i32, i32* %5, align 4
  %43 = sext i32 %42 to i64
  %44 = getelementptr inbounds [3000 x i32], [3000 x i32]* %7, i64 0, i64 %43
  %45 = load i32, i32* %44, align 4
  %46 = load i32, i32* %5, align 4
  %47 = add nsw i32 %46, 1
  %48 = sext i32 %47 to i64
  %49 = getelementptr inbounds [3000 x i32], [3000 x i32]* %7, i64 0, i64 %48
  %50 = load i32, i32* %49, align 4
  %51 = icmp sgt i32 %45, %50
  br i1 %51, label %52, label %70

52:                                               ; preds = %41
  %53 = load i32, i32* %5, align 4
  %54 = sext i32 %53 to i64
  %55 = getelementptr inbounds [3000 x i32], [3000 x i32]* %7, i64 0, i64 %54
  %56 = load i32, i32* %55, align 4
  store i32 %56, i32* %4, align 4
  %57 = load i32, i32* %5, align 4
  %58 = add nsw i32 %57, 1
  %59 = sext i32 %58 to i64
  %60 = getelementptr inbounds [3000 x i32], [3000 x i32]* %7, i64 0, i64 %59
  %61 = load i32, i32* %60, align 4
  %62 = load i32, i32* %5, align 4
  %63 = sext i32 %62 to i64
  %64 = getelementptr inbounds [3000 x i32], [3000 x i32]* %7, i64 0, i64 %63
  store i32 %61, i32* %64, align 4
  %65 = load i32, i32* %4, align 4
  %66 = load i32, i32* %5, align 4
  %67 = add nsw i32 %66, 1
  %68 = sext i32 %67 to i64
  %69 = getelementptr inbounds [3000 x i32], [3000 x i32]* %7, i64 0, i64 %68
  store i32 %65, i32* %69, align 4
  br label %70

70:                                               ; preds = %52, %41
  br label %71

71:                                               ; preds = %70
  %72 = load i32, i32* %5, align 4
  %73 = add nsw i32 %72, 1
  store i32 %73, i32* %5, align 4
  br label %35

74:                                               ; preds = %35
  br label %75

75:                                               ; preds = %74
  %76 = load i32, i32* %3, align 4
  %77 = add nsw i32 %76, 1
  store i32 %77, i32* %3, align 4
  br label %30

78:                                               ; preds = %30
  %79 = load i32, i32* %2, align 4
  store i32 %79, i32* %3, align 4
  br label %80

80:                                               ; preds = %109, %78
  %81 = load i32, i32* %3, align 4
  %82 = icmp sgt i32 %81, 0
  br i1 %82, label %83, label %112

83:                                               ; preds = %80
  %84 = load i32, i32* %3, align 4
  %85 = sext i32 %84 to i64
  %86 = getelementptr inbounds [3000 x i32], [3000 x i32]* %7, i64 0, i64 %85
  %87 = load i32, i32* %86, align 4
  %88 = load i32, i32* %3, align 4
  %89 = sub nsw i32 %88, 1
  %90 = sext i32 %89 to i64
  %91 = getelementptr inbounds [3000 x i32], [3000 x i32]* %7, i64 0, i64 %90
  %92 = load i32, i32* %91, align 4
  %93 = icmp sgt i32 %87, %92
  br i1 %93, label %94, label %95

94:                                               ; preds = %83
  br label %112

95:                                               ; preds = %83
  %96 = load i32, i32* %3, align 4
  %97 = sext i32 %96 to i64
  %98 = getelementptr inbounds [3000 x i32], [3000 x i32]* %7, i64 0, i64 %97
  %99 = load i32, i32* %98, align 4
  %100 = load i32, i32* %3, align 4
  %101 = sub nsw i32 %100, 1
  %102 = sext i32 %101 to i64
  %103 = getelementptr inbounds [3000 x i32], [3000 x i32]* %7, i64 0, i64 %102
  %104 = load i32, i32* %103, align 4
  %105 = icmp eq i32 %99, %104
  br i1 %105, label %106, label %107

106:                                              ; preds = %95
  br label %109

107:                                              ; preds = %95
  br label %108

108:                                              ; preds = %107
  br label %109

109:                                              ; preds = %108, %106
  %110 = load i32, i32* %3, align 4
  %111 = add nsw i32 %110, -1
  store i32 %111, i32* %3, align 4
  br label %80

112:                                              ; preds = %94, %80
  %113 = load i32, i32* %3, align 4
  %114 = sub nsw i32 %113, 1
  %115 = sext i32 %114 to i64
  %116 = getelementptr inbounds [3000 x i32], [3000 x i32]* %7, i64 0, i64 %115
  %117 = load i32, i32* %116, align 4
  %118 = icmp eq i32 %117, 0
  br i1 %118, label %119, label %121

119:                                              ; preds = %112
  %120 = call i32 (i8*, ...) @printf(i8* getelementptr inbounds ([3 x i8], [3 x i8]* @.str.1, i64 0, i64 0))
  br label %128

121:                                              ; preds = %112
  %122 = load i32, i32* %3, align 4
  %123 = sub nsw i32 %122, 1
  %124 = sext i32 %123 to i64
  %125 = getelementptr inbounds [3000 x i32], [3000 x i32]* %7, i64 0, i64 %124
  %126 = load i32, i32* %125, align 4
  %127 = call i32 (i8*, ...) @printf(i8* getelementptr inbounds ([3 x i8], [3 x i8]* @.str, i64 0, i64 0), i32 %126)
  br label %128

128:                                              ; preds = %121, %119
  store i32 0, i32* %1, align 4
  br label %129

129:                                              ; preds = %128, %27
  %130 = load i32, i32* %1, align 4
  ret i32 %130
}

declare dso_local i32 @__isoc99_scanf(i8*, ...) #1

declare dso_local i32 @getchar() #1

declare dso_local i32 @printf(i8*, ...) #1


!llvm.module.flags = !{!0}
!llvm.ident = !{!1}

!0 = !{i32 1, !"wchar_size", i32 4}
!1 = !{!"clang version 10.0.0-4ubuntu1 "}
